; Function Attrs: nounwind uwtable
define internal range(i32 -1, 1) i32 @H5C__json_write_protect_entry_log_msg(ptr noundef readonly captures(none) %0, ptr noundef readonly captures(none) %1, i32 noundef %2, i32 noundef %3, i32 noundef %4) #0 {
  %6 = alloca [16 x i8], align 16
  call void @llvm.lifetime.start.p0(i64 16, ptr nonnull %6) #10
  %7 = load i8, ptr @H5C_init_g, align 1, !tbaa !3, !range !7, !noundef !8
  %8 = trunc nuw i8 %7 to i1
  %9 = load i8, ptr @H5_libterm_g, align 1, !range !7
  %10 = trunc nuw i8 %9 to i1
  %11 = xor i1 %10, true
  %12 = select i1 %8, i1 true, i1 %11
  br i1 %12, label %13, label %H5C__json_write_log_message.exit.thread, !prof !9

13:                                               ; preds = %5
  %14 = icmp eq i32 %3, 128
  br i1 %14, label %15, label %16

15:                                               ; preds = %13
  call void @llvm.memcpy.p0.p0.i64(ptr noundef nonnull align 16 dereferenceable(5) %6, ptr noundef nonnull align 1 dereferenceable(5) @.str.26, i64 5, i1 false) #10
  br label %17

16:                                               ; preds = %13
  call void @llvm.memcpy.p0.p0.i64(ptr noundef nonnull align 16 dereferenceable(6) %6, ptr noundef nonnull align 1 dereferenceable(6) @.str.27, i64 6, i1 false) #10
  br label %17

17:                                               ; preds = %16, %15
  %18 = getelementptr inbounds nuw i8, ptr %0, i64 8
  %19 = load ptr, ptr %18, align 8, !tbaa !15
  %20 = tail call i64 @time(ptr noundef null) #10
  %21 = getelementptr inbounds nuw i8, ptr %1, i64 8
  %22 = load i64, ptr %21, align 8, !tbaa !22
  %23 = getelementptr inbounds nuw i8, ptr %1, i64 16
  %24 = load i64, ptr %23, align 8, !tbaa !31
  %25 = trunc i64 %24 to i32
  %26 = call i32 (ptr, i64, ptr, ...) @snprintf(ptr noundef nonnull dereferenceable(1) %19, i64 noundef 1024, ptr noundef nonnull @.str.28, i64 noundef %20, i64 noundef %22, i32 noundef %2, ptr noundef nonnull %6, i32 noundef %25, i32 noundef %4) #10
  %27 = load i8, ptr @H5C_init_g, align 1, !tbaa !3, !range !7, !noundef !8
  %28 = trunc nuw i8 %27 to i1
  %29 = load i8, ptr @H5_libterm_g, align 1, !range !7
  %30 = trunc nuw i8 %29 to i1
  %31 = xor i1 %30, true
  %32 = select i1 %28, i1 true, i1 %31
  br i1 %32, label %33, label %H5C__json_write_log_message.exit.thread, !prof !9

33:                                               ; preds = %17
  %34 = load ptr, ptr %18, align 8, !tbaa !15
  %35 = call i64 @strlen(ptr noundef nonnull dereferenceable(1) %34) #11
  %36 = trunc i64 %35 to i32
  %37 = load ptr, ptr %0, align 8, !tbaa !21
  %38 = call i32 (ptr, ptr, ...) @fprintf(ptr noundef %37, ptr noundef nonnull @.str.3, ptr noundef nonnull %34) #10
  %.not.i = icmp eq i32 %38, %36
  br i1 %.not.i, label %39, label %41

39:                                               ; preds = %33
  %40 = load ptr, ptr %18, align 8, !tbaa !15
  call void @llvm.memset.p0.i64(ptr align 1 %40, i8 0, i64 %35, i1 false)
  br label %H5C__json_write_log_message.exit.thread

41:                                               ; preds = %33
  %42 = load i64, ptr @H5E_CACHE_g, align 8, !tbaa !19
  %43 = load i64, ptr @H5E_LOGGING_g, align 8, !tbaa !19
  %44 = call i32 (ptr, ptr, i32, i64, i64, ptr, ...) @H5E_printf_stack(ptr noundef nonnull @.str, ptr noundef nonnull @__func__.H5C__json_write_log_message, i32 noundef 173, i64 noundef %42, i64 noundef %43, ptr noundef nonnull @.str.11) #10
  %45 = load i64, ptr @H5E_CACHE_g, align 8, !tbaa !19
  %46 = load i64, ptr @H5E_LOGGING_g, align 8, !tbaa !19
  %47 = call i32 (ptr, ptr, i32, i64, i64, ptr, ...) @H5E_printf_stack(ptr noundef nonnull @.str, ptr noundef nonnull @__func__.H5C__json_write_protect_entry_log_msg, i32 noundef 974, i64 noundef %45, i64 noundef %46, ptr noundef nonnull @.str.10) #10
  br label %H5C__json_write_log_message.exit.thread

H5C__json_write_log_message.exit.thread:          ; preds = %17, %39, %41, %5
  %.0 = phi i32 [ -1, %41 ], [ 0, %5 ], [ 0, %39 ], [ 0, %17 ]
  call void @llvm.lifetime.end.p0(i64 16, ptr nonnull %6) #10
  ret i32 %.0
}